; Function Attrs: nounwind uwtable
define internal void @be_filter_eventcb(ptr readnone captures(none) %0, i16 noundef signext %1, ptr noundef %2) #0 {
  %4 = getelementptr inbounds nuw i8, ptr %2, i64 448
  %5 = load ptr, ptr %4, align 8
  %.not = icmp eq ptr %5, null
  br i1 %.not, label %9, label %6

6:                                                ; preds = %3
  %7 = load ptr, ptr getelementptr inbounds nuw (i8, ptr @evthread_lock_fns_, i64 24), align 8
  %8 = tail call i32 %7(i32 noundef 0, ptr noundef nonnull %5) #3
  br label %9

9:                                                ; preds = %6, %3
  %10 = getelementptr inbounds nuw i8, ptr %2, i64 444
  %11 = load i32, ptr %10, align 4
  %12 = icmp sgt i32 %11, 0
  br i1 %12, label %13, label %14

13:                                               ; preds = %9
  tail call void @bufferevent_run_eventcb_(ptr noundef nonnull %2, i16 noundef signext %1, i32 noundef 0) #3
  br label %14

14:                                               ; preds = %9, %13
  %15 = load ptr, ptr %4, align 8
  %.not12 = icmp eq ptr %15, null
  br i1 %.not12, label %19, label %16

16:                                               ; preds = %14
  %17 = load ptr, ptr getelementptr inbounds nuw (i8, ptr @evthread_lock_fns_, i64 32), align 8
  %18 = tail call i32 %17(i32 noundef 0, ptr noundef nonnull %15) #3
  br label %19

19:                                               ; preds = %16, %14
  ret void
}